target datalayout = "e-m:e-p270:32:32-p271:32:32-p272:64:64-i64:64-i128:128-f80:128-n8:16:32:64-S128"
target triple = "x86_64-pc-linux-gnu"

%"class.std::vector.231" = type { %"struct.std::_Vector_base.232" }
%"struct.std::_Vector_base.232" = type { %"struct.std::_Vector_base<AlignPair, std::allocator<AlignPair>>::_Vector_impl" }
%"struct.std::_Vector_base<AlignPair, std::allocator<AlignPair>>::_Vector_impl" = type { %"struct.std::_Vector_base<AlignPair, std::allocator<AlignPair>>::_Vector_impl_data" }
%"struct.std::_Vector_base<AlignPair, std::allocator<AlignPair>>::_Vector_impl_data" = type { ptr, ptr, ptr }
%class.SubGraph = type { i32, %"class.std::vector.226" }
%"class.std::vector.226" = type { %"struct.std::_Vector_base.227" }
%"struct.std::_Vector_base.227" = type { %"struct.std::_Vector_base<Node, std::allocator<Node>>::_Vector_impl" }
%"struct.std::_Vector_base<Node, std::allocator<Node>>::_Vector_impl" = type { %"struct.std::_Vector_base<Node, std::allocator<Node>>::_Vector_impl_data" }
%"struct.std::_Vector_base<Node, std::allocator<Node>>::_Vector_impl_data" = type { ptr, ptr, ptr }
%class.Node = type { i8, i8, i32, i32, double, %"class.std::vector.231" }

; Function Attrs: mustprogress nounwind uwtable
define linkonce_odr noundef nonnull align 8 dereferenceable(48) ptr @_ZNSt6vectorI4NodeSaIS0_EEixEm(ptr noundef nonnull align 8 dereferenceable(24) %0, i64 noundef %1) #4 comdat align 2 {
  %3 = alloca ptr, align 8
  %4 = alloca i64, align 8
  store ptr %0, ptr %3, align 8
  store i64 %1, ptr %4, align 8
  %5 = load ptr, ptr %3, align 8
  %6 = getelementptr inbounds %"struct.std::_Vector_base.227", ptr %5, i32 0, i32 0
  %7 = getelementptr inbounds %"struct.std::_Vector_base<Node, std::allocator<Node>>::_Vector_impl_data", ptr %6, i32 0, i32 0
  %8 = load ptr, ptr %7, align 8
  %9 = load i64, ptr %4, align 8
  %10 = getelementptr inbounds %class.Node, ptr %8, i64 %9
  ret ptr %10
}

; Function Attrs: mustprogress nounwind uwtable
define linkonce_odr noundef i64 @_ZNKSt6vectorI4NodeSaIS0_EE4sizeEv(ptr noundef nonnull align 8 dereferenceable(24) %0) #4 comdat align 2 {
  %2 = alloca ptr, align 8
  store ptr %0, ptr %2, align 8
  %3 = load ptr, ptr %2, align 8
  %4 = getelementptr inbounds %"struct.std::_Vector_base.227", ptr %3, i32 0, i32 0
  %5 = getelementptr inbounds %"struct.std::_Vector_base<Node, std::allocator<Node>>::_Vector_impl_data", ptr %4, i32 0, i32 1
  %6 = load ptr, ptr %5, align 8
  %7 = getelementptr inbounds %"struct.std::_Vector_base.227", ptr %3, i32 0, i32 0
  %8 = getelementptr inbounds %"struct.std::_Vector_base<Node, std::allocator<Node>>::_Vector_impl_data", ptr %7, i32 0, i32 0
  %9 = load ptr, ptr %8, align 8
  %10 = ptrtoint ptr %6 to i64
  %11 = ptrtoint ptr %9 to i64
  %12 = sub i64 %10, %11
  %13 = sdiv exact i64 %12, 48
  ret i64 %13
}

; Function Attrs: mustprogress nounwind uwtable
define noundef zeroext i1 @_ZN18FilterMutualGlobal9allActiveE8SubGraph(ptr noundef nonnull align 8 dereferenceable(80) %0, ptr noundef %1) #4 align 2 {
  %3 = alloca i1, align 1
  %4 = alloca ptr, align 8
  %5 = alloca ptr, align 8
  %6 = alloca i32, align 4
  store ptr %0, ptr %4, align 8
  store ptr %1, ptr %5, align 8
  store i32 0, ptr %6, align 4
  br label %7

7:                                                ; preds = %23, %2
  %8 = load i32, ptr %6, align 4
  %9 = zext i32 %8 to i64
  %10 = getelementptr inbounds %class.SubGraph, ptr %1, i32 0, i32 1
  %11 = call noundef i64 @_ZNKSt6vectorI4NodeSaIS0_EE4sizeEv(ptr noundef nonnull align 8 dereferenceable(24) %10) #3
  %12 = icmp ult i64 %9, %11
  br i1 %12, label %13, label %26

13:                                               ; preds = %7
  %14 = getelementptr inbounds %class.SubGraph, ptr %1, i32 0, i32 1
  %15 = load i32, ptr %6, align 4
  %16 = zext i32 %15 to i64
  %17 = call noundef nonnull align 8 dereferenceable(48) ptr @_ZNSt6vectorI4NodeSaIS0_EEixEm(ptr noundef nonnull align 8 dereferenceable(24) %14, i64 noundef %16) #3
  %18 = getelementptr inbounds %class.Node, ptr %17, i32 0, i32 0
  %19 = load i8, ptr %18, align 8
  %20 = trunc i8 %19 to i1
  br i1 %20, label %22, label %21

21:                                               ; preds = %13
  store i1 false, ptr %3, align 1
  br label %27

22:                                               ; preds = %13
  br label %23

23:                                               ; preds = %22
  %24 = load i32, ptr %6, align 4
  %25 = add i32 %24, 1
  store i32 %25, ptr %6, align 4
  br label %7, !llvm.loop !88

26:                                               ; preds = %7
  store i1 true, ptr %3, align 1
  br label %27

27:                                               ; preds = %26, %21
  %28 = load i1, ptr %3, align 1
  ret i1 %28
}