; Function Attrs: mustprogress nofree norecurse nosync nounwind willreturn memory(read, inaccessiblemem: none) uwtable
define noundef zeroext i1 @_ZN18FilterMutualGlobal9allActiveE8SubGraph(ptr nocapture noundef nonnull readnone align 8 dereferenceable(80) %0, ptr nocapture noundef readonly %1) local_unnamed_addr #18 align 2 {
  %3 = getelementptr inbounds i8, ptr %1, i64 8
  %4 = getelementptr inbounds i8, ptr %1, i64 16
  %5 = load ptr, ptr %4, align 8
  %6 = load ptr, ptr %3, align 8
  %7 = ptrtoint ptr %5 to i64
  %8 = ptrtoint ptr %6 to i64
  %9 = sub i64 %7, %8
  %10 = sdiv exact i64 %9, 48
  %11 = icmp eq ptr %5, %6
  br i1 %11, label %._crit_edge, label %.lr.ph

.lr.ph:                                           ; preds = %2, %.lr.ph
  %12 = phi i64 [ %17, %.lr.ph ], [ 0, %2 ]
  %.05 = phi i32 [ %16, %.lr.ph ], [ 0, %2 ]
  %13 = getelementptr inbounds %class.Node, ptr %6, i64 %12
  %14 = load i8, ptr %13, align 8
  %15 = and i8 %14, 1
  %.not.not = icmp ne i8 %15, 0
  %16 = add i32 %.05, 1
  %17 = zext i32 %16 to i64
  %.not8 = icmp ugt i64 %10, %17
  %or.cond = select i1 %.not.not, i1 %.not8, i1 false
  br i1 %or.cond, label %.lr.ph, label %._crit_edge, !llvm.loop !56

._crit_edge:                                      ; preds = %.lr.ph, %2
  %.lcssa = phi i1 [ true, %2 ], [ %.not.not, %.lr.ph ]
  ret i1 %.lcssa
}